; Function Attrs: nounwind uwtable
define i32 @dt_cache_contains(ptr noundef %0, i32 noundef %1) local_unnamed_addr #0 {
  %3 = tail call i32 @pthread_mutex_lock(ptr noundef %0) #8
  %4 = getelementptr inbounds nuw i8, ptr %0, i64 64
  %5 = load ptr, ptr %4, align 8, !tbaa !18
  %6 = zext i32 %1 to i64
  %7 = inttoptr i64 %6 to ptr
  %8 = tail call i32 @g_hash_table_contains(ptr noundef %5, ptr noundef %7) #8
  %9 = tail call i32 @pthread_mutex_unlock(ptr noundef %0) #8
  ret i32 %8
}